target datalayout = "e-m:e-p270:32:32-p271:32:32-p272:64:64-i64:64-i128:128-f80:128-n8:16:32:64-S128"
target triple = "x86_64-pc-linux-gnu"

%struct.AVTextFormatSection = type { i32, ptr, i32, [12 x i32], ptr, ptr, ptr, ptr, i32, ptr, ptr, ptr, ptr }

@.str.165 = private unnamed_addr constant [3 x i8] c"=:\00", align 1
@.str.166 = private unnamed_addr constant [38 x i8] c"Missing section name for option '%s'\0A\00", align 1
@.str.167 = private unnamed_addr constant [3 x i8] c",:\00", align 1
@.str.168 = private unnamed_addr constant [52 x i8] c"Adding '%s' to the entries to show in section '%s'\0A\00", align 1
@.str.169 = private unnamed_addr constant [1 x i8] zeroinitializer, align 1
@.str.170 = private unnamed_addr constant [27 x i8] c"No match for section '%s'\0A\00", align 1
@.str.171 = private unnamed_addr constant [44 x i8] c"'%s' matches section with unique name '%s'\0A\00", align 1

; Function Attrs: inlinehint nounwind uwtable
define internal ptr @av_x_if_null(ptr noundef %0, ptr noundef %1) #5 {
  %3 = alloca ptr, align 8
  %4 = alloca ptr, align 8
  store ptr %0, ptr %3, align 8, !tbaa !37
  store ptr %1, ptr %4, align 8, !tbaa !37
  %5 = load ptr, ptr %3, align 8, !tbaa !37
  %6 = icmp ne ptr %5, null
  br i1 %6, label %7, label %9

7:                                                ; preds = %2
  %8 = load ptr, ptr %3, align 8, !tbaa !37
  br label %11

9:                                                ; preds = %2
  %10 = load ptr, ptr %4, align 8, !tbaa !37
  br label %11

11:                                               ; preds = %9, %7
  %12 = phi ptr [ %8, %7 ], [ %10, %9 ]
  %13 = ptrtoint ptr %12 to i64
  %14 = inttoptr i64 %13 to ptr
  ret ptr %14
}

; Function Attrs: nounwind uwtable
define internal i32 @match_section(ptr noundef %0, i32 noundef %1, ptr noundef %2) #0 {
  %4 = alloca ptr, align 8
  %5 = alloca i32, align 4
  %6 = alloca ptr, align 8
  %7 = alloca i32, align 4
  %8 = alloca i32, align 4
  %9 = alloca ptr, align 8
  store ptr %0, ptr %4, align 8, !tbaa !4
  store i32 %1, ptr %5, align 4, !tbaa !11
  store ptr %2, ptr %6, align 8, !tbaa !116
  call void @llvm.lifetime.start.p0(i64 4, ptr %7) #14
  call void @llvm.lifetime.start.p0(i64 4, ptr %8) #14
  store i32 0, ptr %8, align 4, !tbaa !11
  store i32 0, ptr %7, align 4, !tbaa !11
  br label %10

10:                                               ; preds = %53, %3
  %11 = load i32, ptr %7, align 4, !tbaa !11
  %12 = sext i32 %11 to i64
  %13 = icmp ult i64 %12, 66
  br i1 %13, label %14, label %56

14:                                               ; preds = %10
  call void @llvm.lifetime.start.p0(i64 8, ptr %9) #14
  %15 = load i32, ptr %7, align 4, !tbaa !11
  %16 = sext i32 %15 to i64
  %17 = getelementptr inbounds [66 x %struct.AVTextFormatSection], ptr @sections, i64 0, i64 %16
  store ptr %17, ptr %9, align 8, !tbaa !60
  %18 = load ptr, ptr %4, align 8, !tbaa !4
  %19 = load ptr, ptr %9, align 8, !tbaa !60
  %20 = getelementptr inbounds nuw %struct.AVTextFormatSection, ptr %19, i32 0, i32 1
  %21 = load ptr, ptr %20, align 8, !tbaa !122
  %22 = call i32 @strcmp(ptr noundef %18, ptr noundef %21) #15
  %23 = icmp ne i32 %22, 0
  br i1 %23, label %24, label %36

24:                                               ; preds = %14
  %25 = load ptr, ptr %9, align 8, !tbaa !60
  %26 = getelementptr inbounds nuw %struct.AVTextFormatSection, ptr %25, i32 0, i32 5
  %27 = load ptr, ptr %26, align 8, !tbaa !123
  %28 = icmp ne ptr %27, null
  br i1 %28, label %29, label %52

29:                                               ; preds = %24
  %30 = load ptr, ptr %4, align 8, !tbaa !4
  %31 = load ptr, ptr %9, align 8, !tbaa !60
  %32 = getelementptr inbounds nuw %struct.AVTextFormatSection, ptr %31, i32 0, i32 5
  %33 = load ptr, ptr %32, align 8, !tbaa !123
  %34 = call i32 @strcmp(ptr noundef %30, ptr noundef %33) #15
  %35 = icmp ne i32 %34, 0
  br i1 %35, label %52, label %36

36:                                               ; preds = %29, %14
  %37 = load ptr, ptr %4, align 8, !tbaa !4
  %38 = load ptr, ptr %9, align 8, !tbaa !60
  %39 = getelementptr inbounds nuw %struct.AVTextFormatSection, ptr %38, i32 0, i32 5
  %40 = load ptr, ptr %39, align 8, !tbaa !123
  %41 = load ptr, ptr %9, align 8, !tbaa !60
  %42 = getelementptr inbounds nuw %struct.AVTextFormatSection, ptr %41, i32 0, i32 1
  %43 = load ptr, ptr %42, align 8, !tbaa !122
  %44 = call ptr @av_x_if_null(ptr noundef %40, ptr noundef %43)
  call void (ptr, i32, ptr, ...) @av_log(ptr noundef null, i32 noundef 48, ptr noundef @.str.171, ptr noundef %37, ptr noundef %44)
  %45 = load i32, ptr %8, align 4, !tbaa !11
  %46 = add nsw i32 %45, 1
  store i32 %46, ptr %8, align 4, !tbaa !11
  %47 = load ptr, ptr %9, align 8, !tbaa !60
  %48 = getelementptr inbounds nuw %struct.AVTextFormatSection, ptr %47, i32 0, i32 0
  %49 = load i32, ptr %48, align 8, !tbaa !126
  %50 = load i32, ptr %5, align 4, !tbaa !11
  %51 = load ptr, ptr %6, align 8, !tbaa !116
  call void @mark_section_show_entries(i32 noundef %49, i32 noundef %50, ptr noundef %51)
  br label %52

52:                                               ; preds = %36, %29, %24
  call void @llvm.lifetime.end.p0(i64 8, ptr %9) #14
  br label %53

53:                                               ; preds = %52
  %54 = load i32, ptr %7, align 4, !tbaa !11
  %55 = add nsw i32 %54, 1
  store i32 %55, ptr %7, align 4, !tbaa !11
  br label %10, !llvm.loop !127

56:                                               ; preds = %10
  %57 = load i32, ptr %8, align 4, !tbaa !11
  call void @llvm.lifetime.end.p0(i64 4, ptr %8) #14
  call void @llvm.lifetime.end.p0(i64 4, ptr %7) #14
  ret i32 %57
}

; Function Attrs: nounwind uwtable
define internal i32 @opt_show_entries(ptr noundef %0, ptr noundef %1, ptr noundef %2) #0 {
  %4 = alloca i32, align 4
  %5 = alloca ptr, align 8
  %6 = alloca ptr, align 8
  %7 = alloca ptr, align 8
  %8 = alloca ptr, align 8
  %9 = alloca i32, align 4
  %10 = alloca ptr, align 8
  %11 = alloca ptr, align 8
  %12 = alloca i32, align 4
  %13 = alloca i32, align 4
  %14 = alloca ptr, align 8
  store ptr %0, ptr %5, align 8, !tbaa !37
  store ptr %1, ptr %6, align 8, !tbaa !4
  store ptr %2, ptr %7, align 8, !tbaa !4
  call void @llvm.lifetime.start.p0(i64 8, ptr %8) #14
  %15 = load ptr, ptr %7, align 8, !tbaa !4
  store ptr %15, ptr %8, align 8, !tbaa !4
  call void @llvm.lifetime.start.p0(i64 4, ptr %9) #14
  store i32 0, ptr %9, align 4, !tbaa !11
  br label %16

16:                                               ; preds = %93, %3
  %17 = load ptr, ptr %8, align 8, !tbaa !4
  %18 = load i8, ptr %17, align 1, !tbaa !53
  %19 = icmp ne i8 %18, 0
  br i1 %19, label %20, label %94

20:                                               ; preds = %16
  call void @llvm.lifetime.start.p0(i64 8, ptr %10) #14
  store ptr null, ptr %10, align 8, !tbaa !116
  call void @llvm.lifetime.start.p0(i64 8, ptr %11) #14
  %21 = call ptr @av_get_token(ptr noundef %8, ptr noundef @.str.165)
  store ptr %21, ptr %11, align 8, !tbaa !4
  call void @llvm.lifetime.start.p0(i64 4, ptr %12) #14
  store i32 0, ptr %12, align 4, !tbaa !11
  %22 = load ptr, ptr %11, align 8, !tbaa !4
  %23 = icmp ne ptr %22, null
  br i1 %23, label %26, label %24

24:                                               ; preds = %20
  %25 = load ptr, ptr %6, align 8, !tbaa !4
  call void (ptr, i32, ptr, ...) @av_log(ptr noundef null, i32 noundef 16, ptr noundef @.str.166, ptr noundef %25)
  store i32 -22, ptr %4, align 4
  store i32 1, ptr %13, align 4
  br label %91

26:                                               ; preds = %20
  %27 = load ptr, ptr %8, align 8, !tbaa !4
  %28 = load i8, ptr %27, align 1, !tbaa !53
  %29 = sext i8 %28 to i32
  %30 = icmp eq i32 %29, 61
  br i1 %30, label %31, label %68

31:                                               ; preds = %26
  %32 = load ptr, ptr %8, align 8, !tbaa !4
  %33 = getelementptr inbounds nuw i8, ptr %32, i32 1
  store ptr %33, ptr %8, align 8, !tbaa !4
  br label %34

34:                                               ; preds = %66, %31
  %35 = load ptr, ptr %8, align 8, !tbaa !4
  %36 = load i8, ptr %35, align 1, !tbaa !53
  %37 = sext i8 %36 to i32
  %38 = icmp ne i32 %37, 0
  br i1 %38, label %39, label %44

39:                                               ; preds = %34
  %40 = load ptr, ptr %8, align 8, !tbaa !4
  %41 = load i8, ptr %40, align 1, !tbaa !53
  %42 = sext i8 %41 to i32
  %43 = icmp ne i32 %42, 58
  br label %44

44:                                               ; preds = %39, %34
  %45 = phi i1 [ false, %34 ], [ %43, %39 ]
  br i1 %45, label %46, label %67

46:                                               ; preds = %44
  call void @llvm.lifetime.start.p0(i64 8, ptr %14) #14
  %47 = call ptr @av_get_token(ptr noundef %8, ptr noundef @.str.167)
  store ptr %47, ptr %14, align 8, !tbaa !4
  %48 = load ptr, ptr %14, align 8, !tbaa !4
  %49 = icmp ne ptr %48, null
  br i1 %49, label %51, label %50

50:                                               ; preds = %46
  store i32 5, ptr %13, align 4
  br label %64

51:                                               ; preds = %46
  %52 = load ptr, ptr %14, align 8, !tbaa !4
  %53 = load ptr, ptr %11, align 8, !tbaa !4
  call void (ptr, i32, ptr, ...) @av_log(ptr noundef null, i32 noundef 40, ptr noundef @.str.168, ptr noundef %52, ptr noundef %53)
  %54 = load ptr, ptr %14, align 8, !tbaa !4
  %55 = call i32 @av_dict_set(ptr noundef %10, ptr noundef %54, ptr noundef @.str.169, i32 noundef 4)
  %56 = load ptr, ptr %8, align 8, !tbaa !4
  %57 = load i8, ptr %56, align 1, !tbaa !53
  %58 = sext i8 %57 to i32
  %59 = icmp eq i32 %58, 44
  br i1 %59, label %60, label %63

60:                                               ; preds = %51
  %61 = load ptr, ptr %8, align 8, !tbaa !4
  %62 = getelementptr inbounds nuw i8, ptr %61, i32 1
  store ptr %62, ptr %8, align 8, !tbaa !4
  br label %63

63:                                               ; preds = %60, %51
  store i32 0, ptr %13, align 4
  br label %64

64:                                               ; preds = %63, %50
  call void @llvm.lifetime.end.p0(i64 8, ptr %14) #14
  %65 = load i32, ptr %13, align 4
  switch i32 %65, label %98 [
    i32 0, label %66
    i32 5, label %67
  ]

66:                                               ; preds = %64
  br label %34, !llvm.loop !117

67:                                               ; preds = %64, %44
  br label %69

68:                                               ; preds = %26
  store i32 1, ptr %12, align 4, !tbaa !11
  br label %69

69:                                               ; preds = %68, %67
  %70 = load ptr, ptr %11, align 8, !tbaa !4
  %71 = load i32, ptr %12, align 4, !tbaa !11
  %72 = load ptr, ptr %10, align 8, !tbaa !116
  %73 = call i32 @match_section(ptr noundef %70, i32 noundef %71, ptr noundef %72)
  store i32 %73, ptr %9, align 4, !tbaa !11
  %74 = load i32, ptr %9, align 4, !tbaa !11
  %75 = icmp eq i32 %74, 0
  br i1 %75, label %76, label %78

76:                                               ; preds = %69
  %77 = load ptr, ptr %11, align 8, !tbaa !4
  call void (ptr, i32, ptr, ...) @av_log(ptr noundef null, i32 noundef 16, ptr noundef @.str.170, ptr noundef %77)
  store i32 -22, ptr %9, align 4, !tbaa !11
  br label %78

78:                                               ; preds = %76, %69
  call void @av_dict_free(ptr noundef %10)
  %79 = load ptr, ptr %11, align 8, !tbaa !4
  call void @av_free(ptr noundef %79)
  %80 = load i32, ptr %9, align 4, !tbaa !11
  %81 = icmp sle i32 %80, 0
  br i1 %81, label %82, label %83

82:                                               ; preds = %78
  store i32 3, ptr %13, align 4
  br label %91

83:                                               ; preds = %78
  %84 = load ptr, ptr %8, align 8, !tbaa !4
  %85 = load i8, ptr %84, align 1, !tbaa !53
  %86 = icmp ne i8 %85, 0
  br i1 %86, label %87, label %90

87:                                               ; preds = %83
  %88 = load ptr, ptr %8, align 8, !tbaa !4
  %89 = getelementptr inbounds nuw i8, ptr %88, i32 1
  store ptr %89, ptr %8, align 8, !tbaa !4
  br label %90

90:                                               ; preds = %87, %83
  store i32 0, ptr %13, align 4
  br label %91

91:                                               ; preds = %90, %82, %24
  call void @llvm.lifetime.end.p0(i64 4, ptr %12) #14
  call void @llvm.lifetime.end.p0(i64 8, ptr %11) #14
  call void @llvm.lifetime.end.p0(i64 8, ptr %10) #14
  %92 = load i32, ptr %13, align 4
  switch i32 %92, label %96 [
    i32 0, label %93
    i32 3, label %94
  ]

93:                                               ; preds = %91
  br label %16, !llvm.loop !118

94:                                               ; preds = %91, %16
  %95 = load i32, ptr %9, align 4, !tbaa !11
  store i32 %95, ptr %4, align 4
  store i32 1, ptr %13, align 4
  br label %96

96:                                               ; preds = %94, %91
  call void @llvm.lifetime.end.p0(i64 4, ptr %9) #14
  call void @llvm.lifetime.end.p0(i64 8, ptr %8) #14
  %97 = load i32, ptr %4, align 4
  ret i32 %97

98:                                               ; preds = %64
  unreachable
}