; Function Attrs: nounwind uwtable
define internal i32 @opt_show_entries(ptr readnone captures(none) %0, ptr noundef %1, ptr noundef %2) #0 {
  %4 = alloca ptr, align 8
  %5 = alloca ptr, align 8
  call void @llvm.lifetime.start.p0(i64 8, ptr nonnull %4) #20
  store ptr %2, ptr %4, align 8, !tbaa !13
  %6 = load i8, ptr %2, align 1, !tbaa !59
  %.not42 = icmp eq i8 %6, 0
  br i1 %.not42, label %.loopexit, label %.lr.ph

.lr.ph:                                           ; preds = %3, %45
  call void @llvm.lifetime.start.p0(i64 8, ptr nonnull %5) #20
  store ptr null, ptr %5, align 8, !tbaa !74
  %7 = call ptr @av_get_token(ptr noundef nonnull %4, ptr noundef nonnull @.str.165) #20
  %.not26 = icmp eq ptr %7, null
  br i1 %.not26, label %.thread33, label %8

.thread33:                                        ; preds = %.lr.ph
  call void (ptr, i32, ptr, ...) @av_log(ptr noundef null, i32 noundef 16, ptr noundef nonnull @.str.166, ptr noundef %1) #20
  br label %.loopexit.sink.split

8:                                                ; preds = %.lr.ph
  %9 = load ptr, ptr %4, align 8, !tbaa !13
  %10 = load i8, ptr %9, align 1, !tbaa !59
  %11 = icmp eq i8 %10, 61
  br i1 %11, label %.sink.split, label %.critedge

.sink.split:                                      ; preds = %18, %8
  %.sink46 = phi ptr [ %9, %8 ], [ %20, %18 ]
  %12 = getelementptr inbounds nuw i8, ptr %.sink46, i64 1
  store ptr %12, ptr %4, align 8, !tbaa !13
  br label %13

13:                                               ; preds = %.sink.split, %18
  %14 = phi ptr [ %20, %18 ], [ %12, %.sink.split ]
  %15 = load i8, ptr %14, align 1, !tbaa !59
  switch i8 %15, label %16 [
    i8 0, label %.critedge
    i8 58, label %.critedge
  ]

16:                                               ; preds = %13
  %17 = call ptr @av_get_token(ptr noundef nonnull %4, ptr noundef nonnull @.str.167) #20
  %.not29 = icmp eq ptr %17, null
  br i1 %.not29, label %.critedge, label %18

18:                                               ; preds = %16
  call void (ptr, i32, ptr, ...) @av_log(ptr noundef null, i32 noundef 40, ptr noundef nonnull @.str.168, ptr noundef nonnull %17, ptr noundef nonnull %7) #20
  %19 = call i32 @av_dict_set(ptr noundef nonnull %5, ptr noundef nonnull %17, ptr noundef nonnull @.str.169, i32 noundef 4) #20
  %20 = load ptr, ptr %4, align 8, !tbaa !13
  %21 = load i8, ptr %20, align 1, !tbaa !59
  %22 = icmp eq i8 %21, 44
  br i1 %22, label %.sink.split, label %13

.critedge:                                        ; preds = %16, %13, %13, %8
  %.018 = phi i32 [ 1, %8 ], [ 0, %13 ], [ 0, %13 ], [ 0, %16 ]
  %23 = load ptr, ptr %5, align 8, !tbaa !74
  br label %24

24:                                               ; preds = %35, %.critedge
  %indvars.iv.i = phi i64 [ 0, %.critedge ], [ %indvars.iv.next.i, %35 ]
  %.01520.i = phi i32 [ 0, %.critedge ], [ %.1.i, %35 ]
  %25 = getelementptr inbounds nuw [66 x %struct.AVTextFormatSection], ptr @sections, i64 0, i64 %indvars.iv.i
  %26 = getelementptr inbounds nuw i8, ptr %25, i64 8
  %27 = load ptr, ptr %26, align 8, !tbaa !130
  %28 = call i32 @strcmp(ptr noundef nonnull dereferenceable(1) %7, ptr noundef nonnull dereferenceable(1) %27) #21
  %.not.i = icmp eq i32 %28, 0
  %.phi.trans.insert.i = getelementptr inbounds nuw i8, ptr %25, i64 80
  %.pre.i = load ptr, ptr %.phi.trans.insert.i, align 16, !tbaa !131
  br i1 %.not.i, label %._crit_edge.i, label %29

29:                                               ; preds = %24
  %.not18.i = icmp eq ptr %.pre.i, null
  br i1 %.not18.i, label %35, label %30

30:                                               ; preds = %29
  %31 = call i32 @strcmp(ptr noundef nonnull dereferenceable(1) %7, ptr noundef nonnull dereferenceable(1) %.pre.i) #21
  %.not19.i = icmp eq i32 %31, 0
  br i1 %.not19.i, label %._crit_edge.i, label %35

._crit_edge.i:                                    ; preds = %30, %24
  %.not.i.i = icmp eq ptr %.pre.i, null
  %32 = select i1 %.not.i.i, ptr %27, ptr %.pre.i
  call void (ptr, i32, ptr, ...) @av_log(ptr noundef null, i32 noundef 48, ptr noundef nonnull @.str.171, ptr noundef nonnull %7, ptr noundef nonnull %32) #20
  %33 = add nsw i32 %.01520.i, 1
  %34 = load i32, ptr %25, align 16, !tbaa !132
  call fastcc void @mark_section_show_entries(i32 noundef %34, i32 noundef range(i32 0, 2) %.018, ptr noundef %23)
  br label %35

35:                                               ; preds = %._crit_edge.i, %30, %29
  %.1.i = phi i32 [ %.01520.i, %30 ], [ %33, %._crit_edge.i ], [ %.01520.i, %29 ]
  %indvars.iv.next.i = add nuw nsw i64 %indvars.iv.i, 1
  %exitcond.not.i = icmp eq i64 %indvars.iv.next.i, 66
  br i1 %exitcond.not.i, label %match_section.exit, label %24, !llvm.loop !133

match_section.exit:                               ; preds = %35
  %36 = icmp eq i32 %.1.i, 0
  br i1 %36, label %37, label %38

37:                                               ; preds = %match_section.exit
  call void (ptr, i32, ptr, ...) @av_log(ptr noundef null, i32 noundef 16, ptr noundef nonnull @.str.170, ptr noundef nonnull %7) #20
  br label %38

38:                                               ; preds = %37, %match_section.exit
  %.3 = phi i32 [ -22, %37 ], [ %.1.i, %match_section.exit ]
  call void @av_dict_free(ptr noundef nonnull %5) #20
  call void @av_free(ptr noundef nonnull %7) #20
  %39 = icmp slt i32 %.3, 1
  br i1 %39, label %.loopexit.sink.split, label %40

40:                                               ; preds = %38
  %41 = load ptr, ptr %4, align 8, !tbaa !13
  %42 = load i8, ptr %41, align 1, !tbaa !59
  %.not30 = icmp eq i8 %42, 0
  br i1 %.not30, label %45, label %43

43:                                               ; preds = %40
  %44 = getelementptr inbounds nuw i8, ptr %41, i64 1
  store ptr %44, ptr %4, align 8, !tbaa !13
  br label %45

45:                                               ; preds = %40, %43
  %46 = phi ptr [ %41, %40 ], [ %44, %43 ]
  call void @llvm.lifetime.end.p0(i64 8, ptr nonnull %5) #20
  %47 = load i8, ptr %46, align 1, !tbaa !59
  %.not = icmp eq i8 %47, 0
  br i1 %.not, label %.loopexit, label %.lr.ph

.loopexit.sink.split:                             ; preds = %38, %.thread33
  %.2.ph = phi i32 [ -22, %.thread33 ], [ %.3, %38 ]
  call void @llvm.lifetime.end.p0(i64 8, ptr nonnull %5) #20
  br label %.loopexit

.loopexit:                                        ; preds = %45, %.loopexit.sink.split, %3
  %.2 = phi i32 [ 0, %3 ], [ %.2.ph, %.loopexit.sink.split ], [ %.3, %45 ]
  call void @llvm.lifetime.end.p0(i64 8, ptr nonnull %4) #20
  ret i32 %.2
}